Certificate:
    Data:
        Version: 3 (0x2)
        Serial Number: 3 (0x3)
        Signature Algorithm: ecdsa-with-SHA256
        Issuer: C=KG, ST=NA, L=BISHKEK, O=OpenVPN-TEST/emailAddress=arne@openvpn.net
        Validity
            Not Before: Oct 21 14:56:07 2024 GMT
            Not After : Oct 19 14:56:07 2034 GMT
        Subject: C=KG, ST=NA, O=OpenVPN-TEST, CN=client-revoked/emailAddress=arne@openvpn.net
        Subject Public Key Info:
            Public Key Algorithm: rsaEncryption
                Public-Key: (2048 bit)
                Modulus:
                    00:a9:a3:7d:e4:e2:fc:3a:c3:70:89:38:c3:5c:f7:
                    11:da:3f:71:96:6b:ed:66:ae:7b:0d:ad:4b:89:2d:
                    5f:2f:d1:c3:db:56:99:82:72:49:53:77:ed:96:89:
                    b8:fa:5a:b0:60:c7:28:ba:ab:42:f4:c6:82:4e:1e:
                    42:50:c6:24:81:54:d9:35:26:52:22:8b:bd:7b:fb:
                    a6:21:3b:df:a5:4d:eb:39:ee:a6:b3:78:24:c8:2e:
                    25:fb:fa:e4:e3:79:3f:7b:38:83:21:17:f3:5e:3c:
                    3c:34:39:5e:3a:c1:bb:6b:08:a9:5b:f6:ea:4f:d4:
                    c9:c1:5c:29:f9:ff:4c:a8:45:98:c2:08:ae:e5:92:
                    31:8f:12:ce:a3:88:6f:01:31:bb:d1:00:f2:e0:7d:
                    11:c8:a2:ea:9f:4e:e9:a9:c6:96:86:8d:70:d3:8f:
                    73:8b:10:67:57:9a:3f:4e:a9:50:ef:0d:35:33:b4:
                    9b:61:80:33:36:f1:83:0f:86:a1:99:5d:c3:af:e9:
                    32:2f:ea:9e:9b:cd:30:0e:5c:5f:89:ad:e5:7d:5d:
                    e5:9c:48:4c:f8:b3:bc:91:b5:e5:8f:a1:ec:89:d7:
                    a2:11:86:34:ff:93:3e:c0:42:42:d9:fd:ec:a3:97:
                    26:74:21:09:ce:32:28:5f:78:a3:eb:35:54:8b:33:
                    76:77
                Exponent: 65537 (0x10001)
        X509v3 extensions:
            X509v3 Basic Constraints: 
                CA:FALSE
            X509v3 Subject Key Identifier: 
                16:9D:D9:06:0B:99:96:4E:83:41:43:0D:E6:6D:F0:3A:B4:96:C5:5D
            X509v3 Authority Key Identifier: 
                keyid:4C:AD:01:C5:E6:D5:A5:69:81:96:17:3C:E2:EF:69:67:EB:A6:66:EB
                DirName:/C=KG/ST=NA/L=BISHKEK/O=OpenVPN-TEST/emailAddress=arne@openvpn.net
                serial:7B:BC:1B:99:79:7A:69:5E:F0:6C:89:57:3D:1E:71:DD:E3:D2:C7:FA
    Signature Algorithm: ecdsa-with-SHA256
    Signature Value:
        30:66:02:31:00:bb:99:2a:15:69:77:6f:ec:09:98:ea:03:67:
        e8:76:a4:1c:70:4d:8e:d6:46:36:48:47:49:22:07:6f:5a:0a:
        f0:fe:a7:ec:e1:89:93:36:68:c9:a3:7e:26:2c:74:f8:38:02:
        31:00:a0:2d:cf:83:55:cb:01:0a:b3:b0:0c:a8:00:f5:ee:ad:
        eb:cf:ed:b6:c2:f9:87:5a:93:66:44:95:a5:aa:5c:ae:1c:0e:
        42:c9:cb:ac:63:28:08:91:4a:0b:89:dd:29:24
-----BEGIN CERTIFICATE-----
MIIDfDCCAwGgAwIBAgIBAzAKBggqhkjOPQQDAjBkMQswCQYDVQQGEwJLRzELMAkG
A1UECAwCTkExEDAOBgNVBAcMB0JJU0hLRUsxFTATBgNVBAoMDE9wZW5WUE4tVEVT
VDEfMB0GCSqGSIb3DQEJARYQYXJuZUBvcGVudnBuLm5ldDAeFw0yNDEwMjExNDU2
MDdaFw0zNDEwMTkxNDU2MDdaMGsxCzAJBgNVBAYTAktHMQswCQYDVQQIDAJOQTEV
MBMGA1UECgwMT3BlblZQTi1URVNUMRcwFQYDVQQDDA5jbGllbnQtcmV2b2tlZDEf
MB0GCSqGSIb3DQEJARYQYXJuZUBvcGVudnBuLm5ldDCCASIwDQYJKoZIhvcNAQEB
BQADggEPADCCAQoCggEBAKmjfeTi/DrDcIk4w1z3Edo/cZZr7Wauew2tS4ktXy/R
w9tWmYJySVN37ZaJuPpasGDHKLqrQvTGgk4eQlDGJIFU2TUmUiKLvXv7piE736VN
6znuprN4JMguJfv65ON5P3s4gyEX8148PDQ5XjrBu2sIqVv26k/UycFcKfn/TKhF
mMIIruWSMY8SzqOIbwExu9EA8uB9Ecii6p9O6anGloaNcNOPc4sQZ1eaP06pUO8N
NTO0m2GAMzbxgw+GoZldw6/pMi/qnpvNMA5cX4mt5X1d5ZxITPizvJG15Y+h7InX
ohGGNP+TPsBCQtn97KOXJnQhCc4yKF94o+s1VIszdncCAwEAAaOB0TCBzjAJBgNV
HRMEAjAAMB0GA1UdDgQWBBQWndkGC5mWToNBQw3mbfA6tJbFXTCBoQYDVR0jBIGZ
MIGWgBRMrQHF5tWlaYGWFzzi72ln66Zm66FopGYwZDELMAkGA1UEBhMCS0cxCzAJ
BgNVBAgMAk5BMRAwDgYDVQQHDAdCSVNIS0VLMRUwEwYDVQQKDAxPcGVuVlBOLVRF
U1QxHzAdBgkqhkiG9w0BCQEWEGFybmVAb3BlbnZwbi5uZXSCFHu8G5l5emle8GyJ
Vz0ecd3j0sf6MAoGCCqGSM49BAMCA2kAMGYCMQC7mSoVaXdv7AmY6gNn6HakHHBN
jtZGNkhHSSIHb1oK8P6n7OGJkzZoyaN+Jix0+DgCMQCgLc+DVcsBCrOwDKgA9e6t
68/ttsL5h1qTZkSVpapcrhwOQsnLrGMoCJFKC4ndKSQ=
-----END CERTIFICATE-----
