Certificate:
    Data:
        Version: 3 (0x2)
        Serial Number: 2 (0x2)
        Signature Algorithm: ecdsa-with-SHA256
        Issuer: C=KG, ST=NA, L=BISHKEK, O=OpenVPN-TEST/emailAddress=arne@openvpn.net
        Validity
            Not Before: Oct 21 14:56:07 2024 GMT
            Not After : Oct 19 14:56:07 2034 GMT
        Subject: C=KG, ST=NA, O=OpenVPN-TEST, CN=Test-Client/emailAddress=arne@openvpn.net
        Subject Public Key Info:
            Public Key Algorithm: rsaEncryption
                Public-Key: (2048 bit)
                Modulus:
                    00:ca:a1:ad:8a:09:04:af:55:3f:1d:fe:af:ab:84:
                    8c:a1:69:a8:46:28:53:ed:19:57:04:39:23:46:77:
                    41:c3:41:fd:e3:39:3d:d3:ec:d1:0a:56:ff:d1:7c:
                    80:55:11:7f:8f:1d:8b:eb:f7:b6:09:9b:22:dc:5d:
                    2d:db:80:e9:a9:b8:71:26:00:ba:97:82:27:dc:ec:
                    d6:ab:81:76:b4:86:59:6a:94:d6:d7:2e:6e:35:7a:
                    7d:90:30:45:d5:81:b2:6d:f1:2b:10:3c:1c:30:01:
                    95:51:0e:c8:60:bf:59:61:78:bf:c2:ba:cd:90:d0:
                    7f:19:95:e4:24:4e:32:5c:61:27:32:1f:72:3d:1e:
                    4d:11:f2:e5:c8:1f:60:6e:51:42:c6:3e:2c:1a:b6:
                    8e:f6:36:8a:11:87:9a:82:bd:27:02:df:77:f1:c8:
                    40:8e:17:25:01:f1:f1:50:1d:db:61:10:2e:a3:24:
                    17:c7:f5:fe:ca:5e:3a:b0:de:e7:85:3e:fe:11:5a:
                    d2:8b:46:a8:88:f6:ce:c2:b8:60:0f:c5:c2:67:06:
                    45:5a:3d:28:96:3d:26:0a:80:45:22:65:cf:f0:e1:
                    56:78:bd:a0:a6:1e:04:23:39:2b:df:b5:16:97:de:
                    f5:64:90:46:20:9b:7b:87:24:51:93:f1:a1:10:b5:
                    a8:19
                Exponent: 65537 (0x10001)
        X509v3 extensions:
            X509v3 Basic Constraints: 
                CA:FALSE
            X509v3 Subject Key Identifier: 
                57:D2:16:A3:E5:06:9F:39:1A:7D:28:ED:DC:5B:64:20:1C:59:AB:2B
            X509v3 Authority Key Identifier: 
                keyid:4C:AD:01:C5:E6:D5:A5:69:81:96:17:3C:E2:EF:69:67:EB:A6:66:EB
                DirName:/C=KG/ST=NA/L=BISHKEK/O=OpenVPN-TEST/emailAddress=arne@openvpn.net
                serial:7B:BC:1B:99:79:7A:69:5E:F0:6C:89:57:3D:1E:71:DD:E3:D2:C7:FA
    Signature Algorithm: ecdsa-with-SHA256
    Signature Value:
        30:65:02:30:39:28:4a:6f:7b:28:83:49:dd:0c:cf:ee:b8:17:
        2d:34:d7:eb:f0:16:61:08:a1:9d:f2:5d:f4:5f:2d:71:08:da:
        15:da:00:c8:3c:c8:73:e8:02:91:66:01:eb:b3:45:2b:02:31:
        00:b1:64:c8:83:e2:bc:6c:0a:15:bb:b1:6b:2e:c0:e7:f0:ee:
        8f:e3:f7:8e:62:68:d6:0a:1e:90:49:0e:ff:4b:5e:ad:ae:d1:
        f0:a2:95:15:83:16:18:0f:51:3c:ff:d1:cb
-----BEGIN CERTIFICATE-----
MIIDeDCCAv6gAwIBAgIBAjAKBggqhkjOPQQDAjBkMQswCQYDVQQGEwJLRzELMAkG
A1UECAwCTkExEDAOBgNVBAcMB0JJU0hLRUsxFTATBgNVBAoMDE9wZW5WUE4tVEVT
VDEfMB0GCSqGSIb3DQEJARYQYXJuZUBvcGVudnBuLm5ldDAeFw0yNDEwMjExNDU2
MDdaFw0zNDEwMTkxNDU2MDdaMGgxCzAJBgNVBAYTAktHMQswCQYDVQQIDAJOQTEV
MBMGA1UECgwMT3BlblZQTi1URVNUMRQwEgYDVQQDDAtUZXN0LUNsaWVudDEfMB0G
CSqGSIb3DQEJARYQYXJuZUBvcGVudnBuLm5ldDCCASIwDQYJKoZIhvcNAQEBBQAD
ggEPADCCAQoCggEBAMqhrYoJBK9VPx3+r6uEjKFpqEYoU+0ZVwQ5I0Z3QcNB/eM5
PdPs0QpW/9F8gFURf48di+v3tgmbItxdLduA6am4cSYAupeCJ9zs1quBdrSGWWqU
1tcubjV6fZAwRdWBsm3xKxA8HDABlVEOyGC/WWF4v8K6zZDQfxmV5CROMlxhJzIf
cj0eTRHy5cgfYG5RQsY+LBq2jvY2ihGHmoK9JwLfd/HIQI4XJQHx8VAd22EQLqMk
F8f1/speOrDe54U+/hFa0otGqIj2zsK4YA/FwmcGRVo9KJY9JgqARSJlz/DhVni9
oKYeBCM5K9+1Fpfe9WSQRiCbe4ckUZPxoRC1qBkCAwEAAaOB0TCBzjAJBgNVHRME
AjAAMB0GA1UdDgQWBBRX0haj5QafORp9KO3cW2QgHFmrKzCBoQYDVR0jBIGZMIGW
gBRMrQHF5tWlaYGWFzzi72ln66Zm66FopGYwZDELMAkGA1UEBhMCS0cxCzAJBgNV
BAgMAk5BMRAwDgYDVQQHDAdCSVNIS0VLMRUwEwYDVQQKDAxPcGVuVlBOLVRFU1Qx
HzAdBgkqhkiG9w0BCQEWEGFybmVAb3BlbnZwbi5uZXSCFHu8G5l5emle8GyJVz0e
cd3j0sf6MAoGCCqGSM49BAMCA2gAMGUCMDkoSm97KINJ3QzP7rgXLTTX6/AWYQih
nfJd9F8tcQjaFdoAyDzIc+gCkWYB67NFKwIxALFkyIPivGwKFbuxay7A5/Duj+P3
jmJo1goekEkO/0tera7R8KKVFYMWGA9RPP/Ryw==
-----END CERTIFICATE-----
