Certificate:
    Data:
        Version: 3 (0x2)
        Serial Number: 1 (0x1)
        Signature Algorithm: ecdsa-with-SHA256
        Issuer: C=KG, ST=NA, L=BISHKEK, O=OpenVPN-TEST/emailAddress=arne@openvpn.net
        Validity
            Not Before: Oct 21 14:56:07 2024 GMT
            Not After : Oct 19 14:56:07 2034 GMT
        Subject: C=KG, ST=NA, O=OpenVPN-TEST, CN=Test-Server/emailAddress=arne@openvpn.net
        Subject Public Key Info:
            Public Key Algorithm: id-ecPublicKey
                Public-Key: (384 bit)
                pub:
                    04:59:49:97:3f:98:e5:d4:65:cc:5d:19:68:ba:38:
                    3f:6c:de:4a:ae:06:b2:d4:c2:a5:85:50:8a:b4:2f:
                    a7:a1:d1:1a:c3:1b:84:59:eb:85:cd:54:1e:ab:4c:
                    d0:24:85:87:96:03:ba:da:b4:92:46:50:f6:03:63:
                    56:86:37:6b:f6:c3:71:7d:01:a2:34:4a:89:69:31:
                    92:4b:d7:92:1e:fa:07:f9:ee:74:42:f1:2d:ed:58:
                    b3:04:89:88:ef:a7:fe
                ASN1 OID: secp384r1
                NIST CURVE: P-384
        X509v3 extensions:
            X509v3 Basic Constraints: 
                CA:FALSE
            X509v3 Subject Key Identifier: 
                14:7C:6F:D4:A9:EA:FD:AC:98:6B:E6:3F:E6:06:76:0E:14:FE:D2:D8
            X509v3 Extended Key Usage: 
                TLS Web Server Authentication
            X509v3 Key Usage: 
                Digital Signature, Key Encipherment
            X509v3 Authority Key Identifier: 
                4C:AD:01:C5:E6:D5:A5:69:81:96:17:3C:E2:EF:69:67:EB:A6:66:EB
    Signature Algorithm: ecdsa-with-SHA256
    Signature Value:
        30:64:02:30:2d:65:a3:56:ff:3f:14:fb:a4:88:ea:f9:12:eb:
        be:30:95:1f:cd:da:fb:aa:35:d5:18:86:e1:a9:54:96:99:90:
        22:54:86:be:f8:7a:c7:54:c7:58:10:48:94:4a:ef:15:02:30:
        07:b4:17:5b:27:04:ab:f3:fb:af:d2:0b:99:f2:4c:9e:5c:b2:
        b1:7f:1f:b3:8b:a2:f9:6a:f6:d0:cf:26:d4:f8:57:b9:99:33:
        7f:38:29:da:f4:37:77:42:14:91:0e:f3
-----BEGIN CERTIFICATE-----
MIICZjCCAe2gAwIBAgIBATAKBggqhkjOPQQDAjBkMQswCQYDVQQGEwJLRzELMAkG
A1UECAwCTkExEDAOBgNVBAcMB0JJU0hLRUsxFTATBgNVBAoMDE9wZW5WUE4tVEVT
VDEfMB0GCSqGSIb3DQEJARYQYXJuZUBvcGVudnBuLm5ldDAeFw0yNDEwMjExNDU2
MDdaFw0zNDEwMTkxNDU2MDdaMGgxCzAJBgNVBAYTAktHMQswCQYDVQQIDAJOQTEV
MBMGA1UECgwMT3BlblZQTi1URVNUMRQwEgYDVQQDDAtUZXN0LVNlcnZlcjEfMB0G
CSqGSIb3DQEJARYQYXJuZUBvcGVudnBuLm5ldDB2MBAGByqGSM49AgEGBSuBBAAi
A2IABFlJlz+Y5dRlzF0ZaLo4P2zeSq4GstTCpYVQirQvp6HRGsMbhFnrhc1UHqtM
0CSFh5YDutq0kkZQ9gNjVoY3a/bDcX0BojRKiWkxkkvXkh76B/nudELxLe1YswSJ
iO+n/qNvMG0wCQYDVR0TBAIwADAdBgNVHQ4EFgQUFHxv1Knq/ayYa+Y/5gZ2DhT+
0tgwEwYDVR0lBAwwCgYIKwYBBQUHAwEwCwYDVR0PBAQDAgWgMB8GA1UdIwQYMBaA
FEytAcXm1aVpgZYXPOLvaWfrpmbrMAoGCCqGSM49BAMCA2cAMGQCMC1lo1b/PxT7
pIjq+RLrvjCVH83a+6o11RiG4alUlpmQIlSGvvh6x1THWBBIlErvFQIwB7QXWycE
q/P7r9ILmfJMnlyysX8fs4ui+Wr20M8m1PhXuZkzfzgp2vQ3d0IUkQ7z
-----END CERTIFICATE-----
